target datalayout = "e-m:e-p270:32:32-p271:32:32-p272:64:64-i64:64-i128:128-f80:128-n8:16:32:64-S128"
target triple = "x86_64-pc-linux-gnu"

@scale_factor_mult = internal global [15 x [3 x i32]] zeroinitializer, align 16
@is_table_lsf = internal global [2 x [2 x [16 x float]]] zeroinitializer, align 16

; Function Attrs: cold nounwind optsize uwtable
define internal void @decode_init_static() #0 {
  %1 = alloca i32, align 4
  %2 = alloca i32, align 4
  %3 = alloca i32, align 4
  %4 = alloca i32, align 4
  %5 = alloca double, align 8
  %6 = alloca i32, align 4
  %7 = alloca i32, align 4
  call void @llvm.lifetime.start.p0(i64 4, ptr %1) #13
  call void @llvm.lifetime.start.p0(i64 4, ptr %2) #13
  store i32 0, ptr %1, align 4, !tbaa !56
  br label %8

8:                                                ; preds = %51, %0
  %9 = load i32, ptr %1, align 4, !tbaa !56
  %10 = icmp slt i32 %9, 15
  br i1 %10, label %11, label %54

11:                                               ; preds = %8
  call void @llvm.lifetime.start.p0(i64 4, ptr %3) #13
  call void @llvm.lifetime.start.p0(i64 4, ptr %4) #13
  %12 = load i32, ptr %1, align 4, !tbaa !56
  %13 = add nsw i32 %12, 2
  store i32 %13, ptr %3, align 4, !tbaa !56
  %14 = load i32, ptr %3, align 4, !tbaa !56
  %15 = zext i32 %14 to i64
  %16 = shl i64 1, %15
  %17 = mul nsw i64 %16, 8388608
  %18 = load i32, ptr %3, align 4, !tbaa !56
  %19 = shl i32 1, %18
  %20 = sub nsw i32 %19, 1
  %21 = sext i32 %20 to i64
  %22 = sdiv i64 %17, %21
  %23 = trunc i64 %22 to i32
  store i32 %23, ptr %4, align 4, !tbaa !56
  %24 = load i32, ptr %4, align 4, !tbaa !56
  %25 = sitofp i32 %24 to float
  %26 = fmul nsz float 2.000000e+00, %25
  %27 = fptosi float %26 to i32
  %28 = load i32, ptr %1, align 4, !tbaa !56
  %29 = sext i32 %28 to i64
  %30 = getelementptr inbounds [15 x [3 x i32]], ptr @scale_factor_mult, i64 0, i64 %29
  %31 = getelementptr inbounds [3 x i32], ptr %30, i64 0, i64 0
  store i32 %27, ptr %31, align 4, !tbaa !56
  %32 = load i32, ptr %4, align 4, !tbaa !56
  %33 = sitofp i32 %32 to float
  %34 = fmul nsz float 0x3FF965FEA0000000, %33
  %35 = fptosi float %34 to i32
  %36 = load i32, ptr %1, align 4, !tbaa !56
  %37 = sext i32 %36 to i64
  %38 = getelementptr inbounds [15 x [3 x i32]], ptr @scale_factor_mult, i64 0, i64 %37
  %39 = getelementptr inbounds [3 x i32], ptr %38, i64 0, i64 1
  store i32 %35, ptr %39, align 4, !tbaa !56
  %40 = load i32, ptr %4, align 4, !tbaa !56
  %41 = sitofp i32 %40 to float
  %42 = fmul nsz float 0x3FF428A300000000, %41
  %43 = fptosi float %42 to i32
  %44 = load i32, ptr %1, align 4, !tbaa !56
  %45 = sext i32 %44 to i64
  %46 = getelementptr inbounds [15 x [3 x i32]], ptr @scale_factor_mult, i64 0, i64 %45
  %47 = getelementptr inbounds [3 x i32], ptr %46, i64 0, i64 2
  store i32 %43, ptr %47, align 4, !tbaa !56
  br label %48

48:                                               ; preds = %11
  br label %49

49:                                               ; preds = %48
  br label %50

50:                                               ; preds = %49
  call void @llvm.lifetime.end.p0(i64 4, ptr %4) #13
  call void @llvm.lifetime.end.p0(i64 4, ptr %3) #13
  br label %51

51:                                               ; preds = %50
  %52 = load i32, ptr %1, align 4, !tbaa !56
  %53 = add nsw i32 %52, 1
  store i32 %53, ptr %1, align 4, !tbaa !56
  br label %8, !llvm.loop !102

54:                                               ; preds = %8
  call void @mpegaudio_tableinit() #15
  store i32 0, ptr %1, align 4, !tbaa !56
  br label %55

55:                                               ; preds = %104, %54
  %56 = load i32, ptr %1, align 4, !tbaa !56
  %57 = icmp slt i32 %56, 16
  br i1 %57, label %58, label %107

58:                                               ; preds = %55
  call void @llvm.lifetime.start.p0(i64 8, ptr %5) #13
  call void @llvm.lifetime.start.p0(i64 4, ptr %6) #13
  call void @llvm.lifetime.start.p0(i64 4, ptr %7) #13
  store i32 0, ptr %2, align 4, !tbaa !56
  br label %59

59:                                               ; preds = %100, %58
  %60 = load i32, ptr %2, align 4, !tbaa !56
  %61 = icmp slt i32 %60, 2
  br i1 %61, label %62, label %103

62:                                               ; preds = %59
  %63 = load i32, ptr %2, align 4, !tbaa !56
  %64 = add nsw i32 %63, 1
  %65 = sub nsw i32 0, %64
  %66 = load i32, ptr %1, align 4, !tbaa !56
  %67 = add nsw i32 %66, 1
  %68 = ashr i32 %67, 1
  %69 = mul nsw i32 %65, %68
  store i32 %69, ptr %6, align 4, !tbaa !56
  %70 = load i32, ptr %6, align 4, !tbaa !56
  %71 = sitofp i32 %70 to double
  %72 = fdiv nsz double %71, 4.000000e+00
  %73 = call nsz double @llvm.exp2.f64(double %72)
  store double %73, ptr %5, align 8, !tbaa !103
  %74 = load i32, ptr %1, align 4, !tbaa !56
  %75 = and i32 %74, 1
  store i32 %75, ptr %7, align 4, !tbaa !56
  %76 = load double, ptr %5, align 8, !tbaa !103
  %77 = fptrunc nsz double %76 to float
  %78 = load i32, ptr %2, align 4, !tbaa !56
  %79 = sext i32 %78 to i64
  %80 = getelementptr inbounds [2 x [2 x [16 x float]]], ptr @is_table_lsf, i64 0, i64 %79
  %81 = load i32, ptr %7, align 4, !tbaa !56
  %82 = xor i32 %81, 1
  %83 = sext i32 %82 to i64
  %84 = getelementptr inbounds [2 x [16 x float]], ptr %80, i64 0, i64 %83
  %85 = load i32, ptr %1, align 4, !tbaa !56
  %86 = sext i32 %85 to i64
  %87 = getelementptr inbounds [16 x float], ptr %84, i64 0, i64 %86
  store float %77, ptr %87, align 4, !tbaa !105
  %88 = load i32, ptr %2, align 4, !tbaa !56
  %89 = sext i32 %88 to i64
  %90 = getelementptr inbounds [2 x [2 x [16 x float]]], ptr @is_table_lsf, i64 0, i64 %89
  %91 = load i32, ptr %7, align 4, !tbaa !56
  %92 = sext i32 %91 to i64
  %93 = getelementptr inbounds [2 x [16 x float]], ptr %90, i64 0, i64 %92
  %94 = load i32, ptr %1, align 4, !tbaa !56
  %95 = sext i32 %94 to i64
  %96 = getelementptr inbounds [16 x float], ptr %93, i64 0, i64 %95
  store float 1.000000e+00, ptr %96, align 4, !tbaa !105
  br label %97

97:                                               ; preds = %62
  br label %98

98:                                               ; preds = %97
  br label %99

99:                                               ; preds = %98
  br label %100

100:                                              ; preds = %99
  %101 = load i32, ptr %2, align 4, !tbaa !56
  %102 = add nsw i32 %101, 1
  store i32 %102, ptr %2, align 4, !tbaa !56
  br label %59, !llvm.loop !106

103:                                              ; preds = %59
  call void @llvm.lifetime.end.p0(i64 4, ptr %7) #13
  call void @llvm.lifetime.end.p0(i64 4, ptr %6) #13
  call void @llvm.lifetime.end.p0(i64 8, ptr %5) #13
  br label %104

104:                                              ; preds = %103
  %105 = load i32, ptr %1, align 4, !tbaa !56
  %106 = add nsw i32 %105, 1
  store i32 %106, ptr %1, align 4, !tbaa !56
  br label %55, !llvm.loop !107

107:                                              ; preds = %55
  call void @ff_mpa_synth_init_float()
  call void @ff_mpegaudiodec_common_init_static()
  call void @llvm.lifetime.end.p0(i64 4, ptr %2) #13
  call void @llvm.lifetime.end.p0(i64 4, ptr %1) #13
  ret void
}