; Function Attrs: cold nounwind optsize uwtable
define internal void @decode_init_static() #0 {
  br label %1

1:                                                ; preds = %0, %1
  %indvars.iv = phi i64 [ 0, %0 ], [ %indvars.iv.next, %1 ]
  %2 = shl nuw nsw i64 33554432, %indvars.iv
  %3 = trunc nuw nsw i64 %indvars.iv to i32
  %4 = shl nuw nsw i32 4, %3
  %5 = add nsw i32 %4, -1
  %6 = zext nneg i32 %5 to i64
  %7 = udiv i64 %2, %6
  %8 = trunc i64 %7 to i32
  %9 = sitofp i32 %8 to float
  %10 = fmul nsz float %9, 2.000000e+00
  %11 = fptosi float %10 to i32
  %12 = getelementptr inbounds nuw [15 x [3 x i32]], ptr @scale_factor_mult, i64 0, i64 %indvars.iv
  store i32 %11, ptr %12, align 4, !tbaa !51
  %13 = fmul nsz float %9, 0x3FF965FEA0000000
  %14 = fptosi float %13 to i32
  %15 = getelementptr inbounds nuw i8, ptr %12, i64 4
  store i32 %14, ptr %15, align 4, !tbaa !51
  %16 = fmul nsz float %9, 0x3FF428A300000000
  %17 = fptosi float %16 to i32
  %18 = getelementptr inbounds nuw i8, ptr %12, i64 8
  store i32 %17, ptr %18, align 4, !tbaa !51
  %indvars.iv.next = add nuw nsw i64 %indvars.iv, 1
  %exitcond.not = icmp eq i64 %indvars.iv.next, 15
  br i1 %exitcond.not, label %19, label %1, !llvm.loop !88

19:                                               ; preds = %1
  tail call fastcc void @mpegaudio_tableinit() #15
  br label %.preheader

.preheader:                                       ; preds = %19, %36
  %indvars.iv33 = phi i64 [ 0, %19 ], [ %indvars.iv.next34, %36 ]
  %indvars.iv.next34 = add nuw nsw i64 %indvars.iv33, 1
  %20 = trunc nuw nsw i64 %indvars.iv.next34 to i32
  %21 = lshr i32 %20, 1
  %22 = and i64 %indvars.iv33, 1
  %23 = xor i64 %22, 1
  %24 = and i64 %indvars.iv33, 1
  br label %25

25:                                               ; preds = %.preheader, %25
  %26 = phi i1 [ true, %.preheader ], [ false, %25 ]
  %indvars.iv30 = phi i64 [ 0, %.preheader ], [ 1, %25 ]
  %27 = trunc nuw nsw i64 %indvars.iv30 to i32
  %28 = xor i32 %27, -1
  %29 = mul nsw i32 %21, %28
  %30 = sitofp i32 %29 to double
  %31 = fmul nsz double %30, 2.500000e-01
  %32 = tail call nsz double @llvm.exp2.f64(double %31)
  %33 = fptrunc nsz double %32 to float
  %34 = getelementptr inbounds nuw [2 x [2 x [16 x float]]], ptr @is_table_lsf, i64 0, i64 %indvars.iv30, i64 %23, i64 %indvars.iv33
  store float %33, ptr %34, align 4, !tbaa !89
  %35 = getelementptr inbounds nuw [2 x [2 x [16 x float]]], ptr @is_table_lsf, i64 0, i64 %indvars.iv30, i64 %24, i64 %indvars.iv33
  store float 1.000000e+00, ptr %35, align 4, !tbaa !89
  br i1 %26, label %25, label %36, !llvm.loop !90

36:                                               ; preds = %25
  %exitcond36.not = icmp eq i64 %indvars.iv.next34, 16
  br i1 %exitcond36.not, label %37, label %.preheader, !llvm.loop !91

37:                                               ; preds = %36
  tail call void @ff_mpa_synth_init_float() #14
  tail call void @ff_mpegaudiodec_common_init_static() #14
  ret void
}